BL51 BANKED LINKER/LOCATER V6.22.2.0                                                    02/28/2021  15:40:57  PAGE 1


BL51 BANKED LINKER/LOCATER V6.22.2.0, INVOKED BY:
C:\KEIL_V5\C51\BIN\BL51.EXE .\Output\GPIO.obj, .\Output\Common.obj, .\Output\Delay.obj, .\Output\Version.obj, .\Output\S
>> TARTUP.obj TO .\Output\GPIO PRINT (.\LST\GPIO.m51) RAMSIZE (256) DISABLEWARNING (16)


MEMORY MODEL: SMALL


INPUT MODULES INCLUDED:
  .\Output\GPIO.obj (GPIO)
  .\Output\Common.obj (COMMON)
  .\Output\Delay.obj (DELAY)
  .\Output\Version.obj (VERSION)
  .\Output\STARTUP.obj (?C_STARTUP)
  C:\KEIL_V5\C51\LIB\C51S.LIB (?C?ULDIV)
  C:\KEIL_V5\C51\LIB\C51S.LIB (?C?ULCMP)
  C:\KEIL_V5\C51\LIB\C51S.LIB (?C?ULSHR)
  C:\KEIL_V5\C51\LIB\C51S.LIB (?C?LLDIDATA)
  C:\KEIL_V5\C51\LIB\C51S.LIB (?C?LLDIDATA0)
  C:\KEIL_V5\C51\LIB\C51S.LIB (?C?LSTIDATA)
  C:\KEIL_V5\C51\LIB\C51S.LIB (?C?LSTKIDATA)
  C:\KEIL_V5\C51\LIB\C51S.LIB (?C_IBP)
  C:\KEIL_V5\C51\LIB\C51S.LIB (PRINTF)
  C:\KEIL_V5\C51\LIB\C51S.LIB (?C?CLDPTR)
  C:\KEIL_V5\C51\LIB\C51S.LIB (?C?CLDOPTR)
  C:\KEIL_V5\C51\LIB\C51S.LIB (?C?CSTPTR)
  C:\KEIL_V5\C51\LIB\C51S.LIB (?C?PLDIIDATA)
  C:\KEIL_V5\C51\LIB\C51S.LIB (?C?CCASE)
  C:\KEIL_V5\C51\LIB\C51S.LIB (PUTCHAR)


LINK MAP OF MODULE:  .\Output\GPIO (GPIO)


            TYPE    BASE      LENGTH    RELOCATION   SEGMENT NAME
            -----------------------------------------------------

            * * * * * * *   D A T A   M E M O R Y   * * * * * * *
            REG     0000H     0008H     ABSOLUTE     "REG BANK 0"
            DATA    0008H     0014H     UNIT         ?DT?PRINTF?PRINTF
            DATA    001CH     0004H     UNIT         ?DT?_INITIALUART0_TIMER3_TYPE5?COMMON
            BIT     0020H.0   0001H.1   UNIT         ?BI?PRINTF?PRINTF
            BIT     0021H.1   0000H.1   UNIT         ?BI?GPIO
                    0021H.2   0000H.6                *** GAP ***
            DATA    0022H     0006H     UNIT         _DATA_GROUP_
            DATA    0028H     0004H     UNIT         ?DT?_INITIALUART0_TIMER3_TYPE6?COMMON
            DATA    002CH     0004H     UNIT         ?DT?_INITIALUART1_TIMER3?COMMON
            DATA    0030H     0004H     UNIT         ?DT?_TIMER1_DELAY1MS?DELAY
            DATA    0034H     0004H     UNIT         ?DT?_TIMER2_DELAY1MS?DELAY
            DATA    0038H     0004H     UNIT         ?DT?_TIMER3_DELAY1MS?DELAY
            DATA    003CH     0004H     UNIT         ?DT?_WAKEUP_TIMER_DELAY25MS?DELAY
            DATA    0040H     0001H     UNIT         ?C?LIB_DATA
            IDATA   0041H     0001H     UNIT         ?STACK

            * * * * * * *   C O D E   M E M O R Y   * * * * * * *
            CODE    0000H     0003H     ABSOLUTE     
            CODE    0003H     035CH     UNIT         ?PR?PRINTF?PRINTF
            CODE    035FH     01BEH     UNIT         ?C?LIB_CODE
BL51 BANKED LINKER/LOCATER V6.22.2.0                                                  02/28/2021  15:40:57  PAGE 2


            CODE    051DH     01A5H     UNIT         ?PR?_SYSTEM_CLOCK_SELECT?COMMON
            CODE    06C2H     0112H     UNIT         ?CO?VERSION
            CODE    07D4H     0076H     UNIT         ?PR?MAIN?GPIO
            CODE    084AH     0065H     UNIT         ?PR?_INITIALUART0_TIMER3_TYPE5?COMMON
            CODE    08AFH     0065H     UNIT         ?PR?_INITIALUART0_TIMER3_TYPE6?COMMON
            CODE    0914H     0063H     UNIT         ?PR?_?RANDOM_DELAY?DELAY
            CODE    0977H     005FH     UNIT         ?PR?_INITIALUART1_TIMER3?COMMON
            CODE    09D6H     0058H     UNIT         ?PR?SHOW_FW_VERSION_NUMBER_TO_PC?VERSION
            CODE    0A2EH     0056H     UNIT         ?PR?_WAKEUP_TIMER_DELAY25MS?DELAY
            CODE    0A84H     0050H     UNIT         ?PR?_TIMER3_DELAY1MS?DELAY
            CODE    0AD4H     004EH     UNIT         ?PR?_TIMER2_DELAY1MS?DELAY
            CODE    0B22H     004BH     UNIT         ?PR?_TIMER0_DELAY1MS?DELAY
            CODE    0B6DH     004BH     UNIT         ?PR?_TIMER1_DELAY1MS?DELAY
            CODE    0BB8H     0031H     UNIT         ?PR?GPIO_CONFIG?GPIO
            CODE    0BE9H     002AH     UNIT         ?PR?_INITIALUART0_TIMER1_TYPE2?COMMON
            CODE    0C13H     002AH     UNIT         ?PR?_INITIALUART0_TIMER1_TYPE3?COMMON
            CODE    0C3DH     002AH     UNIT         ?PR?_INITIALUART0_TIMER1_TYPE4?COMMON
            CODE    0C67H     0028H     UNIT         ?PR?_INITIALUART0_TIMER1_TYPE1?COMMON
            CODE    0C8FH     0027H     UNIT         ?PR?PUTCHAR?PUTCHAR
            CODE    0CB6H     0021H     UNIT         ?PR?_DELAY10US?DELAY
            CODE    0CD7H     001AH     UNIT         ?PR?SW_RESET?COMMON
            CODE    0CF1H     001AH     UNIT         ?C_C51STARTUP
            CODE    0D0BH     0013H     UNIT         ?PR?_SET_PWM_DEAD_TIME?GPIO
            CODE    0D1EH     0012H     UNIT         ?PR?SET_ALL_GPIO_QUASI_MODE?COMMON
            CODE    0D30H     000BH     UNIT         ?PR?_SET_PWM_PERIOD?GPIO
            CODE    0D3BH     0009H     UNIT         ?PR?_SET_PWM01?GPIO
            CODE    0D44H     0009H     UNIT         ?PR?_SET_PWM23?GPIO
            CODE    0D4DH     0009H     UNIT         ?PR?_SET_PWM45?GPIO
            CODE    0D56H     0009H     UNIT         ?PR?_SET_PWM67?GPIO
            CODE    0D5FH     0008H     UNIT         ?PR?RECEIVE_DATA_FROM_UART0?COMMON
            CODE    0D67H     0008H     UNIT         ?PR?_SEND_DATA_TO_UART0?COMMON
            CODE    0D6FH     0008H     UNIT         ?PR?RECEIVE_DATA_FROM_UART1?COMMON
            CODE    0D77H     0008H     UNIT         ?PR?_SEND_DATA_TO_UART1?COMMON
            CODE    0D7FH     0004H     UNIT         ?PR?FSYS_CLOCK_OUTPUT_ON_P26?COMMON



OVERLAY MAP OF MODULE:   .\Output\GPIO (GPIO)


SEGMENT                                            DATA_GROUP 
  +--> CALLED SEGMENT                            START    LENGTH
----------------------------------------------------------------
?C_C51STARTUP                                    -----    -----
  +--> ?PR?MAIN?GPIO

?PR?MAIN?GPIO                                    0022H    0002H
  +--> ?PR?_SYSTEM_CLOCK_SELECT?COMMON
  +--> ?PR?GPIO_CONFIG?GPIO
  +--> ?PR?_SET_PWM_PERIOD?GPIO
  +--> ?PR?_SET_PWM_DEAD_TIME?GPIO
  +--> ?PR?_SET_PWM01?GPIO
  +--> ?PR?_TIMER0_DELAY1MS?DELAY

?PR?_TIMER0_DELAY1MS?DELAY                       0024H    0004H


BL51 BANKED LINKER/LOCATER V6.22.2.0                                                  02/28/2021  15:40:57  PAGE 3



SYMBOL TABLE OF MODULE:  .\Output\GPIO (GPIO)

  VALUE           TYPE          NAME
  ----------------------------------

  -------         MODULE        GPIO
  C:0000H         SYMBOL        _ICE_DUMMY_
  D:00B1H         PUBLIC        P0M1
  D:00B3H         PUBLIC        P1M1
  D:00B2H         PUBLIC        P0M2
  D:0080H         PUBLIC        P0
  D:00B5H         PUBLIC        P2M1
  D:00B4H         PUBLIC        P1M2
  D:0090H         PUBLIC        P1
  D:00B6H         PUBLIC        P2M2
  D:00A0H         PUBLIC        P2
  D:00B0H         PUBLIC        P3
  C:0D3BH         PUBLIC        _set_PWM01
  B:00A8H.7       PUBLIC        EA
  D:00D8H         PUBLIC        PWMCON0
  D:00DFH         PUBLIC        PWMCON1
  C:0D44H         PUBLIC        _set_PWM23
  C:0D4DH         PUBLIC        _set_PWM45
  D:00D1H         PUBLIC        PWMPH
  D:00A8H         PUBLIC        IE
  C:0D56H         PUBLIC        _set_PWM67
  D:00D9H         PUBLIC        PWMPL
  D:00C7H         PUBLIC        TA
  D:00B8H         PUBLIC        IP
  D:00D2H         PUBLIC        PWM01H
  B:00D8H.6       PUBLIC        LOAD
  D:00DAH         PUBLIC        PWM01L
  D:00D3H         PUBLIC        PWM23H
  C:07D4H         PUBLIC        main
  D:00DBH         PUBLIC        PWM23L
  D:00D5H         PUBLIC        PWM45H
  D:00DDH         PUBLIC        PWM45L
  D:00D4H         PUBLIC        PWM67H
  D:00DCH         PUBLIC        PWM67L
  B:0021H.1       PUBLIC        BIT_TMP
  D:0098H         PUBLIC        SCON
  D:0088H         PUBLIC        TCON
  D:00F8H         PUBLIC        SCON_1
  D:00FAH         PUBLIC        PDTCNT
  B:00D8H.4       PUBLIC        CLRPWM
  D:00E8H         PUBLIC        ADCCON0
  D:00C0H         PUBLIC        I2CON
  C:0D0BH         PUBLIC        _set_PWM_Dead_Time
  D:00C8H         PUBLIC        T2CON
  D:00DEH         PUBLIC        PIO
  C:0BB8H         PUBLIC        GPIO_Config
  C:0D30H         PUBLIC        _set_PWM_Period
  B:00D8H.7       PUBLIC        PWMRUN
  D:00D6H         PUBLIC        PNP
  D:008EH         PUBLIC        CKCON
  D:00D0H         PUBLIC        PSW
BL51 BANKED LINKER/LOCATER V6.22.2.0                                                  02/28/2021  15:40:57  PAGE 4


  D:00F9H         PUBLIC        PDTEN
  -------         PROC          MAIN
  -------         DO            
  D:0022H         SYMBOL        i
  -------         ENDDO         
  C:07D4H         LINE#         23
  C:07D4H         LINE#         24
  C:07D4H         LINE#         25
  C:07D9H         LINE#         27
  C:07DEH         LINE#         29
  C:07E1H         LINE#         30
  C:07E4H         LINE#         31
  C:07EAH         LINE#         32
  C:07EDH         LINE#         33
  C:07F0H         LINE#         34
  C:07F6H         LINE#         35
  C:07F9H         LINE#         36
  C:07FCH         LINE#         39
  C:0803H         LINE#         40
  C:0808H         LINE#         41
  C:081BH         LINE#         42
  C:081BH         LINE#         43
  C:081BH         LINE#         44
  C:082DH         LINE#         45
  C:082DH         LINE#         46
  C:0834H         LINE#         47
  C:083FH         LINE#         48
  -------         ENDPROC       MAIN
  -------         PROC          _SET_PWM_DEAD_TIME
  D:0007H         SYMBOL        value
  C:0D0BH         LINE#         58
  C:0D0BH         LINE#         59
  C:0D0BH         LINE#         60
  C:0D0FH         LINE#         61
  C:0D11H         LINE#         62
  C:0D14H         LINE#         63
  C:0D17H         LINE#         64
  C:0D19H         LINE#         65
  C:0D1DH         LINE#         67
  -------         ENDPROC       _SET_PWM_DEAD_TIME
  -------         PROC          GPIO_CONFIG
  C:0BB8H         LINE#         69
  C:0BB8H         LINE#         70
  C:0BB8H         LINE#         71
  C:0BBEH         LINE#         72
  C:0BC4H         LINE#         73
  C:0BCAH         LINE#         74
  C:0BD0H         LINE#         75
  C:0BD6H         LINE#         76
  C:0BDCH         LINE#         77
  C:0BE2H         LINE#         78
  C:0BE8H         LINE#         79
  -------         ENDPROC       GPIO_CONFIG
  -------         PROC          _SET_PWM_PERIOD
  D:0006H         SYMBOL        valuePeriod
  C:0D30H         LINE#         81
  C:0D30H         LINE#         82
BL51 BANKED LINKER/LOCATER V6.22.2.0                                                  02/28/2021  15:40:57  PAGE 5


  C:0D30H         LINE#         83
  C:0D32H         LINE#         84
  C:0D35H         LINE#         85
  C:0D38H         LINE#         86
  C:0D3AH         LINE#         87
  -------         ENDPROC       _SET_PWM_PERIOD
  -------         PROC          _SET_PWM01
  D:0006H         SYMBOL        value
  C:0D3BH         LINE#         88
  C:0D3BH         LINE#         89
  C:0D3BH         LINE#         90
  C:0D3EH         LINE#         91
  C:0D41H         LINE#         92
  C:0D43H         LINE#         93
  -------         ENDPROC       _SET_PWM01
  -------         PROC          _SET_PWM23
  D:0006H         SYMBOL        value
  C:0D44H         LINE#         94
  C:0D44H         LINE#         95
  C:0D44H         LINE#         96
  C:0D47H         LINE#         97
  C:0D4AH         LINE#         98
  C:0D4CH         LINE#         99
  -------         ENDPROC       _SET_PWM23
  -------         PROC          _SET_PWM45
  D:0006H         SYMBOL        value
  C:0D4DH         LINE#         100
  C:0D4DH         LINE#         101
  C:0D4DH         LINE#         102
  C:0D50H         LINE#         103
  C:0D53H         LINE#         104
  C:0D55H         LINE#         105
  -------         ENDPROC       _SET_PWM45
  -------         PROC          _SET_PWM67
  D:0006H         SYMBOL        value
  C:0D56H         LINE#         106
  C:0D56H         LINE#         107
  C:0D56H         LINE#         108
  C:0D59H         LINE#         109
  C:0D5CH         LINE#         110
  C:0D5EH         LINE#         111
  -------         ENDPROC       _SET_PWM67
  -------         ENDMOD        GPIO

  -------         MODULE        COMMON
  C:0000H         SYMBOL        _ICE_DUMMY_
  D:00B1H         PUBLIC        P0M1
  D:00B3H         PUBLIC        P1M1
  D:00B2H         PUBLIC        P0M2
  D:0080H         PUBLIC        P0
  D:00B5H         PUBLIC        P2M1
  D:00B4H         PUBLIC        P1M2
  D:0090H         PUBLIC        P1
  D:00B6H         PUBLIC        P2M2
  D:00ACH         PUBLIC        P3M1
  D:00A0H         PUBLIC        P2
  D:00B0H         PUBLIC        P3
BL51 BANKED LINKER/LOCATER V6.22.2.0                                                  02/28/2021  15:40:57  PAGE 6


  D:00ADH         PUBLIC        P3M2
  B:00A8H.7       PUBLIC        EA
  D:00D8H         PUBLIC        PWMCON0
  C:0D1EH         PUBLIC        Set_All_GPIO_Quasi_Mode
  C:0C67H         PUBLIC        _InitialUART0_Timer1_Type1
  C:0BE9H         PUBLIC        _InitialUART0_Timer1_Type2
  C:0C13H         PUBLIC        _InitialUART0_Timer1_Type3
  C:0C3DH         PUBLIC        _InitialUART0_Timer1_Type4
  D:00A8H         PUBLIC        IE
  D:0096H         PUBLIC        CKSWT
  C:084AH         PUBLIC        _InitialUART0_Timer3_Type5
  C:0CD7H         PUBLIC        SW_Reset
  C:08AFH         PUBLIC        _InitialUART0_Timer3_Type6
  D:00C7H         PUBLIC        TA
  D:00B8H         PUBLIC        IP
  B:0098H.0       PUBLIC        RI
  C:051DH         PUBLIC        _System_Clock_Select
  B:0098H.1       PUBLIC        TI
  D:0097H         PUBLIC        CKEN
  C:0D7FH         PUBLIC        Fsys_Clock_Output_On_P26
  B:00F8H.0       PUBLIC        RI_1
  B:00F8H.1       PUBLIC        TI_1
  D:0099H         PUBLIC        SBUF
  D:0087H         PUBLIC        PCON
  D:0098H         PUBLIC        SCON
  D:0089H         PUBLIC        TMOD
  D:0088H         PUBLIC        TCON
  D:009FH         PUBLIC        CHPCON
  D:009AH         PUBLIC        SBUF_1
  D:00F8H         PUBLIC        SCON_1
  D:00C6H         PUBLIC        RH3
  D:008DH         PUBLIC        TH1
  D:00C5H         PUBLIC        RL3
  C:0977H         PUBLIC        _InitialUART1_Timer3
  B:0088H.6       PUBLIC        TR1
  D:00E8H         PUBLIC        ADCCON0
  C:0D67H         PUBLIC        _Send_Data_To_UART0
  C:0D77H         PUBLIC        _Send_Data_To_UART1
  D:00C0H         PUBLIC        I2CON
  D:00C8H         PUBLIC        T2CON
  D:00C4H         PUBLIC        T3CON
  C:0D5FH         PUBLIC        Receive_Data_From_UART0
  C:0D6FH         PUBLIC        Receive_Data_From_UART1
  D:008EH         PUBLIC        CKCON
  D:00D0H         PUBLIC        PSW
  -------         PROC          _SYSTEM_CLOCK_SELECT
  D:0007H         SYMBOL        clock
  C:051DH         LINE#         25
  C:051DH         LINE#         26
  C:051DH         LINE#         27
  C:053AH         LINE#         28
  C:053AH         LINE#         29
  C:053AH         LINE#         30
  C:053AH         LINE#         32
  C:054DH         LINE#         33
  C:0560H         LINE#         36
  C:0566H         LINE#         39
BL51 BANKED LINKER/LOCATER V6.22.2.0                                                  02/28/2021  15:40:57  PAGE 7


  C:0579H         LINE#         40
  C:058CH         LINE#         41
  C:058FH         LINE#         43
  C:058FH         LINE#         44
  C:058FH         LINE#         46
  C:05A2H         LINE#         47
  C:05B5H         LINE#         50
  C:05BBH         LINE#         53
  C:05CEH         LINE#         54
  C:05E1H         LINE#         55
  C:05E4H         LINE#         57
  C:05E4H         LINE#         58
  C:05E4H         LINE#         60
  C:05F7H         LINE#         61
  C:060AH         LINE#         64
  C:0610H         LINE#         67
  C:0623H         LINE#         68
  C:0636H         LINE#         69
  C:0639H         LINE#         71
  C:0639H         LINE#         72
  C:0639H         LINE#         74
  C:064CH         LINE#         77
  C:0652H         LINE#         80
  C:0665H         LINE#         81
  C:0678H         LINE#         82
  C:067AH         LINE#         84
  C:067AH         LINE#         85
  C:067AH         LINE#         87
  C:068DH         LINE#         90
  C:0693H         LINE#         93
  C:06A6H         LINE#         94
  C:06B9H         LINE#         95
  C:06B9H         LINE#         96
  C:06B9H         LINE#         98
  C:06C1H         LINE#         99
  -------         ENDPROC       _SYSTEM_CLOCK_SELECT
  -------         PROC          _INITIALUART0_TIMER1_TYPE1
  D:0004H         SYMBOL        u32Baudrate
  C:0C67H         LINE#         103
  C:0C67H         LINE#         104
  C:0C67H         LINE#         105
  C:0C6AH         LINE#         106
  C:0C6DH         LINE#         108
  C:0C70H         LINE#         109
  C:0C73H         LINE#         110
  C:0C76H         LINE#         122
  C:0C8CH         LINE#         124
  C:0C8EH         LINE#         125
  -------         ENDPROC       _INITIALUART0_TIMER1_TYPE1
  -------         PROC          _INITIALUART0_TIMER1_TYPE2
  D:0004H         SYMBOL        u32Baudrate
  C:0BE9H         LINE#         130
  C:0BE9H         LINE#         131
  C:0BE9H         LINE#         132
  C:0BECH         LINE#         133
  C:0BEFH         LINE#         135
  C:0BF2H         LINE#         136
BL51 BANKED LINKER/LOCATER V6.22.2.0                                                  02/28/2021  15:40:57  PAGE 8


  C:0BF5H         LINE#         137
  C:0BF8H         LINE#         149
  C:0C10H         LINE#         151
  C:0C12H         LINE#         152
  -------         ENDPROC       _INITIALUART0_TIMER1_TYPE2
  -------         PROC          _INITIALUART0_TIMER1_TYPE3
  D:0004H         SYMBOL        u32Baudrate
  C:0C13H         LINE#         157
  C:0C13H         LINE#         158
  C:0C13H         LINE#         159
  C:0C16H         LINE#         160
  C:0C19H         LINE#         162
  C:0C1CH         LINE#         163
  C:0C1FH         LINE#         164
  C:0C22H         LINE#         176
  C:0C3AH         LINE#         178
  C:0C3CH         LINE#         179
  -------         ENDPROC       _INITIALUART0_TIMER1_TYPE3
  -------         PROC          _INITIALUART0_TIMER1_TYPE4
  D:0004H         SYMBOL        u32Baudrate
  C:0C3DH         LINE#         184
  C:0C3DH         LINE#         185
  C:0C3DH         LINE#         186
  C:0C40H         LINE#         187
  C:0C43H         LINE#         189
  C:0C46H         LINE#         190
  C:0C49H         LINE#         191
  C:0C4CH         LINE#         203
  C:0C64H         LINE#         205
  C:0C66H         LINE#         206
  -------         ENDPROC       _INITIALUART0_TIMER1_TYPE4
  -------         PROC          _INITIALUART0_TIMER3_TYPE5
  D:001CH         SYMBOL        u32Baudrate
  C:084AH         LINE#         208
  C:0852H         LINE#         209
  C:0852H         LINE#         210
  C:0855H         LINE#         211
  C:0858H         LINE#         212
  C:085BH         LINE#         213
  C:085EH         LINE#         228
  C:0886H         LINE#         229
  C:08ABH         LINE#         231
  C:08AEH         LINE#         232
  -------         ENDPROC       _INITIALUART0_TIMER3_TYPE5
  -------         PROC          _INITIALUART0_TIMER3_TYPE6
  D:0028H         SYMBOL        u32Baudrate
  C:08AFH         LINE#         234
  C:08B7H         LINE#         235
  C:08B7H         LINE#         236
  C:08BAH         LINE#         237
  C:08BDH         LINE#         238
  C:08C0H         LINE#         239
  C:08C3H         LINE#         254
  C:08EBH         LINE#         255
  C:0910H         LINE#         257
  C:0913H         LINE#         258
  -------         ENDPROC       _INITIALUART0_TIMER3_TYPE6
BL51 BANKED LINKER/LOCATER V6.22.2.0                                                  02/28/2021  15:40:57  PAGE 9


  -------         PROC          _INITIALUART1_TIMER3
  D:002CH         SYMBOL        u32Baudrate
  C:0977H         LINE#         260
  C:097FH         LINE#         261
  C:097FH         LINE#         262
  C:0982H         LINE#         263
  C:0985H         LINE#         278
  C:09ADH         LINE#         279
  C:09D2H         LINE#         281
  C:09D5H         LINE#         282
  -------         ENDPROC       _INITIALUART1_TIMER3
  -------         PROC          RECEIVE_DATA_FROM_UART0
  -------         DO            
  D:0007H         SYMBOL        c
  -------         ENDDO         
  C:0D5FH         LINE#         294
  C:0D5FH         LINE#         295
  C:0D5FH         LINE#         298
  C:0D62H         LINE#         299
  C:0D64H         LINE#         300
  C:0D66H         LINE#         301
  C:0D66H         LINE#         302
  -------         ENDPROC       RECEIVE_DATA_FROM_UART0
  -------         PROC          _SEND_DATA_TO_UART0
  D:0007H         SYMBOL        c
  C:0D67H         LINE#         314
  C:0D67H         LINE#         315
  C:0D67H         LINE#         316
  C:0D69H         LINE#         317
  C:0D6BH         LINE#         318
  C:0D6EH         LINE#         319
  -------         ENDPROC       _SEND_DATA_TO_UART0
  -------         PROC          RECEIVE_DATA_FROM_UART1
  -------         DO            
  D:0007H         SYMBOL        c
  -------         ENDDO         
  C:0D6FH         LINE#         331
  C:0D6FH         LINE#         332
  C:0D6FH         LINE#         335
  C:0D72H         LINE#         336
  C:0D74H         LINE#         337
  C:0D76H         LINE#         338
  C:0D76H         LINE#         339
  -------         ENDPROC       RECEIVE_DATA_FROM_UART1
  -------         PROC          _SEND_DATA_TO_UART1
  D:0007H         SYMBOL        c
  C:0D77H         LINE#         351
  C:0D77H         LINE#         352
  C:0D77H         LINE#         353
  C:0D79H         LINE#         354
  C:0D7BH         LINE#         355
  C:0D7EH         LINE#         356
  -------         ENDPROC       _SEND_DATA_TO_UART1
  -------         PROC          SET_ALL_GPIO_QUASI_MODE
  C:0D1EH         LINE#         358
  C:0D1EH         LINE#         359
  C:0D1EH         LINE#         360
BL51 BANKED LINKER/LOCATER V6.22.2.0                                                  02/28/2021  15:40:57  PAGE 10


  C:0D21H         LINE#         361
  C:0D23H         LINE#         362
  C:0D25H         LINE#         363
  C:0D27H         LINE#         364
  C:0D29H         LINE#         365
  C:0D2BH         LINE#         366
  C:0D2DH         LINE#         367
  C:0D2FH         LINE#         368
  -------         ENDPROC       SET_ALL_GPIO_QUASI_MODE
  -------         PROC          SW_RESET
  C:0CD7H         LINE#         371
  C:0CD7H         LINE#         372
  C:0CD7H         LINE#         373
  C:0CDAH         LINE#         374
  C:0CDDH         LINE#         375
  C:0CF0H         LINE#         376
  -------         ENDPROC       SW_RESET
  -------         PROC          FSYS_CLOCK_OUTPUT_ON_P26
  C:0D7FH         LINE#         378
  C:0D7FH         LINE#         379
  C:0D7FH         LINE#         380
  C:0D82H         LINE#         381
  -------         ENDPROC       FSYS_CLOCK_OUTPUT_ON_P26
  -------         ENDMOD        COMMON

  -------         MODULE        DELAY
  C:0000H         SYMBOL        _ICE_DUMMY_
  D:0080H         PUBLIC        P0
  D:0090H         PUBLIC        P1
  D:00A0H         PUBLIC        P2
  D:00B0H         PUBLIC        P3
  D:008FH         PUBLIC        WKCON
  D:00D8H         PUBLIC        PWMCON0
  D:00A8H         PUBLIC        IE
  D:00B8H         PUBLIC        IP
  C:0B22H         PUBLIC        _Timer0_Delay1ms
  C:0B6DH         PUBLIC        _Timer1_Delay1ms
  C:0AD4H         PUBLIC        _Timer2_Delay1ms
  C:0A84H         PUBLIC        _Timer3_Delay1ms
  D:0098H         PUBLIC        SCON
  D:0089H         PUBLIC        TMOD
  D:0088H         PUBLIC        TCON
  C:0914H         PUBLIC        _?Random_Delay
  C:0CB6H         PUBLIC        _Delay10us
  D:00F8H         PUBLIC        SCON_1
  B:0088H.5       PUBLIC        TF0
  B:0088H.7       PUBLIC        TF1
  B:00C8H.7       PUBLIC        TF2
  D:008CH         PUBLIC        TH0
  D:00C6H         PUBLIC        RH3
  D:008DH         PUBLIC        TH1
  D:00CDH         PUBLIC        TH2
  D:008AH         PUBLIC        TL0
  C:0A2EH         PUBLIC        _WakeUp_Timer_Delay25ms
  D:00C5H         PUBLIC        RL3
  D:008BH         PUBLIC        TL1
  D:00CCH         PUBLIC        TL2
BL51 BANKED LINKER/LOCATER V6.22.2.0                                                  02/28/2021  15:40:57  PAGE 11


  B:0088H.4       PUBLIC        TR0
  B:0088H.6       PUBLIC        TR1
  B:00C8H.2       PUBLIC        TR2
  D:00E8H         PUBLIC        ADCCON0
  D:00C0H         PUBLIC        I2CON
  D:00C9H         PUBLIC        T2MOD
  D:00C8H         PUBLIC        T2CON
  D:00C4H         PUBLIC        T3CON
  D:008EH         PUBLIC        CKCON
  D:0086H         PUBLIC        RWK
  D:00D0H         PUBLIC        PSW
  -------         PROC          _?RANDOM_DELAY
  -------         DO            
  i:0000H         SYMBOL        u32CNT
  i:0004H         SYMBOL        u32Tmp
  -------         ENDDO         
  C:0914H         LINE#         48
  C:091AH         LINE#         52
  C:0934H         LINE#         53
  C:0934H         LINE#         54
  C:0955H         LINE#         55
  C:0970H         LINE#         56
  -------         ENDPROC       _?RANDOM_DELAY
  -------         PROC          _DELAY10US
  D:0006H         SYMBOL        u16CNT
  C:0CB6H         LINE#         58
  C:0CB6H         LINE#         59
  C:0CB6H         LINE#         60
  C:0CB9H         LINE#         61
  C:0CBCH         LINE#         62
  C:0CBEH         LINE#         63
  C:0CC2H         LINE#         64
  C:0CC2H         LINE#         65
  C:0CC5H         LINE#         66
  C:0CC8H         LINE#         67
  C:0CCBH         LINE#         68
  C:0CCDH         LINE#         69
  C:0CD2H         LINE#         70
  C:0CD4H         LINE#         71
  C:0CD6H         LINE#         72
  -------         ENDPROC       _DELAY10US
  -------         PROC          _TIMER0_DELAY1MS
  D:0024H         SYMBOL        u32CNT
  C:0B22H         LINE#         74
  C:0B2AH         LINE#         75
  C:0B2AH         LINE#         76
  C:0B2DH         LINE#         77
  C:0B30H         LINE#         78
  C:0B32H         LINE#         79
  C:0B45H         LINE#         80
  C:0B45H         LINE#         81
  C:0B48H         LINE#         82
  C:0B4BH         LINE#         83
  C:0B4EH         LINE#         84
  C:0B50H         LINE#         85
  C:0B68H         LINE#         86
  C:0B6AH         LINE#         87
BL51 BANKED LINKER/LOCATER V6.22.2.0                                                  02/28/2021  15:40:57  PAGE 12


  C:0B6CH         LINE#         88
  -------         ENDPROC       _TIMER0_DELAY1MS
  -------         PROC          _TIMER1_DELAY1MS
  D:0030H         SYMBOL        u32CNT
  C:0B6DH         LINE#         90
  C:0B75H         LINE#         91
  C:0B75H         LINE#         92
  C:0B78H         LINE#         93
  C:0B7BH         LINE#         94
  C:0B7DH         LINE#         95
  C:0B90H         LINE#         96
  C:0B90H         LINE#         97
  C:0B93H         LINE#         98
  C:0B96H         LINE#         99
  C:0B99H         LINE#         100
  C:0B9BH         LINE#         101
  C:0BB3H         LINE#         102
  C:0BB5H         LINE#         103
  C:0BB7H         LINE#         104
  -------         ENDPROC       _TIMER1_DELAY1MS
  -------         PROC          _TIMER2_DELAY1MS
  D:0034H         SYMBOL        u32CNT
  C:0AD4H         LINE#         106
  C:0ADCH         LINE#         107
  C:0ADCH         LINE#         109
  C:0ADFH         LINE#         110
  C:0AE2H         LINE#         111
  C:0AE5H         LINE#         112
  C:0AE7H         LINE#         113
  C:0AFAH         LINE#         114
  C:0AFAH         LINE#         115
  C:0AFDH         LINE#         116
  C:0B00H         LINE#         117
  C:0B03H         LINE#         118
  C:0B05H         LINE#         119
  C:0B1DH         LINE#         120
  C:0B1FH         LINE#         121
  C:0B21H         LINE#         122
  -------         ENDPROC       _TIMER2_DELAY1MS
  -------         PROC          _TIMER3_DELAY1MS
  D:0038H         SYMBOL        u32CNT
  C:0A84H         LINE#         124
  C:0A8CH         LINE#         125
  C:0A8CH         LINE#         126
  C:0A8FH         LINE#         127
  C:0A92H         LINE#         128
  C:0AA5H         LINE#         129
  C:0AA5H         LINE#         130
  C:0AA8H         LINE#         131
  C:0AABH         LINE#         132
  C:0AB3H         LINE#         133
  C:0AB6H         LINE#         134
  C:0ACEH         LINE#         135
  C:0AD0H         LINE#         136
  C:0AD3H         LINE#         137
  -------         ENDPROC       _TIMER3_DELAY1MS
  -------         PROC          _WAKEUP_TIMER_DELAY25MS
BL51 BANKED LINKER/LOCATER V6.22.2.0                                                  02/28/2021  15:40:57  PAGE 13


  D:003CH         SYMBOL        u32CNT
  C:0A2EH         LINE#         139
  C:0A36H         LINE#         140
  C:0A36H         LINE#         141
  C:0A39H         LINE#         142
  C:0A3CH         LINE#         143
  C:0A3FH         LINE#         145
  C:0A42H         LINE#         147
  C:0A45H         LINE#         148
  C:0A48H         LINE#         149
  C:0A5BH         LINE#         150
  C:0A5BH         LINE#         151
  C:0A63H         LINE#         152
  C:0A66H         LINE#         153
  C:0A7EH         LINE#         154
  C:0A80H         LINE#         155
  C:0A83H         LINE#         156
  -------         ENDPROC       _WAKEUP_TIMER_DELAY25MS
  -------         ENDMOD        DELAY

  -------         MODULE        VERSION
  C:0000H         SYMBOL        _ICE_DUMMY_
  D:0080H         PUBLIC        P0
  D:0090H         PUBLIC        P1
  D:00A0H         PUBLIC        P2
  D:00B0H         PUBLIC        P3
  D:00D8H         PUBLIC        PWMCON0
  D:00A8H         PUBLIC        IE
  D:00B8H         PUBLIC        IP
  D:0098H         PUBLIC        SCON
  D:0088H         PUBLIC        TCON
  D:00F8H         PUBLIC        SCON_1
  C:09D6H         PUBLIC        Show_FW_Version_Number_To_PC
  D:00E8H         PUBLIC        ADCCON0
  D:00C0H         PUBLIC        I2CON
  D:00C8H         PUBLIC        T2CON
  D:00D0H         PUBLIC        PSW
  -------         PROC          SHOW_FW_VERSION_NUMBER_TO_PC
  C:09D6H         LINE#         31
  C:09D6H         LINE#         32
  C:09D6H         LINE#         33
  C:09DFH         LINE#         34
  C:09E8H         LINE#         35
  C:09F1H         LINE#         36
  C:0A09H         LINE#         37
  C:0A24H         LINE#         38
  C:0A2DH         LINE#         39
  -------         ENDPROC       SHOW_FW_VERSION_NUMBER_TO_PC
  -------         ENDMOD        VERSION

  -------         MODULE        ?C_STARTUP
  C:0CF1H         SEGMENT       ?C_C51STARTUP
  I:0041H         SEGMENT       ?STACK
  C:0000H         PUBLIC        ?C_STARTUP
  D:00E0H         SYMBOL        ACC
  D:00F0H         SYMBOL        B
  D:0083H         SYMBOL        DPH
BL51 BANKED LINKER/LOCATER V6.22.2.0                                                  02/28/2021  15:40:57  PAGE 14


  D:0082H         SYMBOL        DPL
  N:0000H         SYMBOL        IBPSTACK
  N:0100H         SYMBOL        IBPSTACKTOP
  N:0080H         SYMBOL        IDATALEN
  C:0CF4H         SYMBOL        IDATALOOP
  N:0000H         SYMBOL        PBPSTACK
  N:0000H         SYMBOL        PBPSTACKTOP
  N:0000H         SYMBOL        PDATALEN
  N:0000H         SYMBOL        PDATASTART
  N:0000H         SYMBOL        PPAGE
  N:0000H         SYMBOL        PPAGEENABLE
  D:00A0H         SYMBOL        PPAGE_SFR
  D:0081H         SYMBOL        SP
  C:0CF1H         SYMBOL        STARTUP1
  N:0000H         SYMBOL        XBPSTACK
  N:0000H         SYMBOL        XBPSTACKTOP
  N:00FFH         SYMBOL        XDATALEN
  C:0CFFH         SYMBOL        XDATALOOP
  N:0000H         SYMBOL        XDATASTART
  C:0000H         LINE#         92
  C:0CF1H         LINE#         99
  C:0CF3H         LINE#         100
  C:0CF4H         LINE#         101
  C:0CF5H         LINE#         102
  C:0CF7H         LINE#         106
  C:0CFAH         LINE#         107
  C:0CFCH         LINE#         109
  C:0CFEH         LINE#         113
  C:0CFFH         LINE#         114
  C:0D00H         LINE#         115
  C:0D01H         LINE#         116
  C:0D03H         LINE#         117
  C:0D05H         LINE#         151
  C:0D08H         LINE#         155
  -------         ENDMOD        ?C_STARTUP

  -------         MODULE        ?C?ULDIV
  C:039BH         PUBLIC        ?C?ULDIV
  -------         ENDMOD        ?C?ULDIV

  -------         MODULE        ?C?ULCMP
  C:042DH         PUBLIC        ?C?ULCMP
  -------         ENDMOD        ?C?ULCMP

  -------         MODULE        ?C?ULSHR
  C:043EH         PUBLIC        ?C?ULSHR
  -------         ENDMOD        ?C?ULSHR

  -------         MODULE        ?C?LLDIDATA
  C:0451H         PUBLIC        ?C?LLDIDATA
  -------         ENDMOD        ?C?LLDIDATA

  -------         MODULE        ?C?LLDIDATA0
  C:045DH         PUBLIC        ?C?LLDIDATA0
  -------         ENDMOD        ?C?LLDIDATA0

  -------         MODULE        ?C?LSTIDATA
BL51 BANKED LINKER/LOCATER V6.22.2.0                                                  02/28/2021  15:40:57  PAGE 15


  C:046AH         PUBLIC        ?C?LSTIDATA
  -------         ENDMOD        ?C?LSTIDATA

  -------         MODULE        ?C?LSTKIDATA
  C:0476H         PUBLIC        ?C?LSTKIDATA
  -------         ENDMOD        ?C?LSTKIDATA

  -------         MODULE        ?C_IBP
  D:0040H         PUBLIC        ?C_IBP
  -------         ENDMOD        ?C_IBP

  -------         MODULE        PRINTF
  D:0008H         PUBLIC        ?_PRINTF517?BYTE
  D:0008H         PUBLIC        ?_PRINTF?BYTE
  D:0008H         PUBLIC        ?_SPRINTF517?BYTE
  D:0008H         PUBLIC        ?_SPRINTF?BYTE
  C:0065H         PUBLIC        _PRINTF
  C:0065H         PUBLIC        _PRINTF517
  C:005FH         PUBLIC        _SPRINTF
  C:005FH         PUBLIC        _SPRINTF517
  -------         ENDMOD        PRINTF

  -------         MODULE        ?C?CLDPTR
  C:048FH         PUBLIC        ?C?CLDPTR
  -------         ENDMOD        ?C?CLDPTR

  -------         MODULE        ?C?CLDOPTR
  C:04A8H         PUBLIC        ?C?CLDOPTR
  -------         ENDMOD        ?C?CLDOPTR

  -------         MODULE        ?C?CSTPTR
  C:04D5H         PUBLIC        ?C?CSTPTR
  -------         ENDMOD        ?C?CSTPTR

  -------         MODULE        ?C?PLDIIDATA
  C:04E7H         PUBLIC        ?C?PLDIIDATA
  -------         ENDMOD        ?C?PLDIIDATA

  -------         MODULE        ?C?CCASE
  C:04F7H         PUBLIC        ?C?CCASE
  -------         ENDMOD        ?C?CCASE

  -------         MODULE        PUTCHAR
  C:0C8FH         PUBLIC        _PUTCHAR
  -------         ENDMOD        PUTCHAR

Program Size: data=65.2 xdata=0 code=3459
LINK/LOCATE RUN COMPLETE.  0 WARNING(S),  0 ERROR(S)
